target datalayout = "e-m:e-p270:32:32-p271:32:32-p272:64:64-i64:64-i128:128-f80:128-n8:16:32:64-S128"
target triple = "x86_64-unknown-linux-gnu"

%"class.google::protobuf::DescriptorDatabase" = type { ptr }
%"class.std::basic_string_view" = type { i64, ptr }
%"class.google::protobuf::DescriptorPoolDatabase" = type { %"class.google::protobuf::DescriptorDatabase", ptr }
%"class.google::protobuf::FieldDescriptor" = type { %"class.google::protobuf::internal::SymbolBase", i8, i8, i8, i32, ptr, ptr, ptr, ptr, %union.anon.157, %union.anon.158, ptr, ptr, ptr, %union.anon.159 }
%"class.google::protobuf::internal::SymbolBase" = type { i8 }
%union.anon.157 = type { ptr }
%union.anon.158 = type { ptr }
%union.anon.159 = type { i64 }

; Function Attrs: mustprogress nounwind uwtable
define linkonce_odr hidden noundef ptr @_ZNK6google8protobuf15FieldDescriptor4fileEv(ptr noundef nonnull align 8 dereferenceable(88) %this) #4 comdat align 2 {
entry:
  %this.addr = alloca ptr, align 8
  store ptr %this, ptr %this.addr, align 8
  %this1 = load ptr, ptr %this.addr, align 8
  %file_ = getelementptr inbounds %"class.google::protobuf::FieldDescriptor", ptr %this1, i32 0, i32 6
  %0 = load ptr, ptr %file_, align 8
  ret ptr %0
}

; Function Attrs: mustprogress uwtable
define noundef zeroext i1 @_ZN6google8protobuf22DescriptorPoolDatabase27FindFileContainingExtensionERKNSt7__cxx1112basic_stringIcSt11char_traitsIcESaIcEEEiPNS0_19FileDescriptorProtoE(ptr noundef nonnull align 8 dereferenceable(16) %this, ptr noundef nonnull align 8 dereferenceable(32) %containing_type, i32 noundef %field_number, ptr noundef %output) unnamed_addr #6 align 2 {
entry:
  %retval = alloca i1, align 1
  %this.addr = alloca ptr, align 8
  %containing_type.addr = alloca ptr, align 8
  %field_number.addr = alloca i32, align 4
  %output.addr = alloca ptr, align 8
  %extendee = alloca ptr, align 8
  %agg.tmp = alloca %"class.std::basic_string_view", align 8
  %extension = alloca ptr, align 8
  store ptr %this, ptr %this.addr, align 8
  store ptr %containing_type, ptr %containing_type.addr, align 8
  store i32 %field_number, ptr %field_number.addr, align 4
  store ptr %output, ptr %output.addr, align 8
  %this1 = load ptr, ptr %this.addr, align 8
  %pool_ = getelementptr inbounds %"class.google::protobuf::DescriptorPoolDatabase", ptr %this1, i32 0, i32 1
  %0 = load ptr, ptr %pool_, align 8
  %1 = load ptr, ptr %containing_type.addr, align 8
  %call = call { i64, ptr } @_ZNKSt7__cxx1112basic_stringIcSt11char_traitsIcESaIcEEcvSt17basic_string_viewIcS2_EEv(ptr noundef nonnull align 8 dereferenceable(32) %1) #3
  %2 = getelementptr inbounds { i64, ptr }, ptr %agg.tmp, i32 0, i32 0
  %3 = extractvalue { i64, ptr } %call, 0
  store i64 %3, ptr %2, align 8
  %4 = getelementptr inbounds { i64, ptr }, ptr %agg.tmp, i32 0, i32 1
  %5 = extractvalue { i64, ptr } %call, 1
  store ptr %5, ptr %4, align 8
  %6 = getelementptr inbounds { i64, ptr }, ptr %agg.tmp, i32 0, i32 0
  %7 = load i64, ptr %6, align 8
  %8 = getelementptr inbounds { i64, ptr }, ptr %agg.tmp, i32 0, i32 1
  %9 = load ptr, ptr %8, align 8
  %call2 = call noundef ptr @_ZNK6google8protobuf14DescriptorPool21FindMessageTypeByNameESt17basic_string_viewIcSt11char_traitsIcEE(ptr noundef nonnull align 8 dereferenceable(96) %0, i64 %7, ptr %9)
  store ptr %call2, ptr %extendee, align 8
  %10 = load ptr, ptr %extendee, align 8
  %cmp = icmp eq ptr %10, null
  br i1 %cmp, label %if.then, label %if.end

if.then:                                          ; preds = %entry
  store i1 false, ptr %retval, align 1
  br label %return

if.end:                                           ; preds = %entry
  %pool_3 = getelementptr inbounds %"class.google::protobuf::DescriptorPoolDatabase", ptr %this1, i32 0, i32 1
  %11 = load ptr, ptr %pool_3, align 8
  %12 = load ptr, ptr %extendee, align 8
  %13 = load i32, ptr %field_number.addr, align 4
  %call4 = call noundef ptr @_ZNK6google8protobuf14DescriptorPool21FindExtensionByNumberEPKNS0_10DescriptorEi(ptr noundef nonnull align 8 dereferenceable(96) %11, ptr noundef %12, i32 noundef %13)
  store ptr %call4, ptr %extension, align 8
  %14 = load ptr, ptr %extension, align 8
  %cmp5 = icmp eq ptr %14, null
  br i1 %cmp5, label %if.then6, label %if.end7

if.then6:                                         ; preds = %if.end
  store i1 false, ptr %retval, align 1
  br label %return

if.end7:                                          ; preds = %if.end
  %15 = load ptr, ptr %output.addr, align 8
  call void @_ZN6google8protobuf19FileDescriptorProto5ClearEv(ptr noundef nonnull align 8 dereferenceable(224) %15)
  %16 = load ptr, ptr %extension, align 8
  %call8 = call noundef ptr @_ZNK6google8protobuf15FieldDescriptor4fileEv(ptr noundef nonnull align 8 dereferenceable(88) %16)
  %17 = load ptr, ptr %output.addr, align 8
  call void @_ZNK6google8protobuf14FileDescriptor6CopyToEPNS0_19FileDescriptorProtoE(ptr noundef nonnull align 8 dereferenceable(168) %call8, ptr noundef %17)
  store i1 true, ptr %retval, align 1
  br label %return

return:                                           ; preds = %if.end7, %if.then6, %if.then
  %18 = load i1, ptr %retval, align 1
  ret i1 %18
}