; Function Attrs: mustprogress uwtable
define noundef zeroext i1 @_ZN6google8protobuf22DescriptorPoolDatabase27FindFileContainingExtensionERKNSt7__cxx1112basic_stringIcSt11char_traitsIcESaIcEEEiPNS0_19FileDescriptorProtoE(ptr nocapture noundef nonnull readonly align 8 dereferenceable(16) %this, ptr noundef nonnull align 8 dereferenceable(32) %containing_type, i32 noundef %field_number, ptr noundef %output) unnamed_addr #6 align 2 {
entry:
  %pool_ = getelementptr inbounds i8, ptr %this, i64 8
  %0 = load ptr, ptr %pool_, align 8
  %call = tail call { i64, ptr } @_ZNKSt7__cxx1112basic_stringIcSt11char_traitsIcESaIcEEcvSt17basic_string_viewIcS2_EEv(ptr noundef nonnull align 8 dereferenceable(32) %containing_type) #28
  %1 = extractvalue { i64, ptr } %call, 0
  %2 = extractvalue { i64, ptr } %call, 1
  %call2 = tail call noundef ptr @_ZNK6google8protobuf14DescriptorPool21FindMessageTypeByNameESt17basic_string_viewIcSt11char_traitsIcEE(ptr noundef nonnull align 8 dereferenceable(96) %0, i64 %1, ptr %2)
  %cmp = icmp eq ptr %call2, null
  br i1 %cmp, label %return, label %if.end

if.end:                                           ; preds = %entry
  %3 = load ptr, ptr %pool_, align 8
  %call4 = tail call noundef ptr @_ZNK6google8protobuf14DescriptorPool21FindExtensionByNumberEPKNS0_10DescriptorEi(ptr noundef nonnull align 8 dereferenceable(96) %3, ptr noundef nonnull %call2, i32 noundef %field_number)
  %cmp5 = icmp eq ptr %call4, null
  br i1 %cmp5, label %return, label %if.end7

if.end7:                                          ; preds = %if.end
  tail call void @_ZN6google8protobuf19FileDescriptorProto5ClearEv(ptr noundef nonnull align 8 dereferenceable(224) %output)
  %file_.i = getelementptr inbounds i8, ptr %call4, i64 16
  %4 = load ptr, ptr %file_.i, align 8
  tail call void @_ZNK6google8protobuf14FileDescriptor6CopyToEPNS0_19FileDescriptorProtoE(ptr noundef nonnull align 8 dereferenceable(168) %4, ptr noundef nonnull %output)
  br label %return

return:                                           ; preds = %if.end, %entry, %if.end7
  %retval.0 = phi i1 [ true, %if.end7 ], [ false, %entry ], [ false, %if.end ]
  ret i1 %retval.0
}